target datalayout = "e-m:e-p270:32:32-p271:32:32-p272:64:64-i64:64-i128:128-f80:128-n8:16:32:64-S128"
target triple = "x86_64-unknown-linux-gnu"

%"struct.std::_Vector_base" = type { %"struct.std::_Vector_base<double, std::allocator<double>>::_Vector_impl" }
%"struct.std::_Vector_base<double, std::allocator<double>>::_Vector_impl" = type { %"struct.std::_Vector_base<double, std::allocator<double>>::_Vector_impl_data" }
%"struct.std::_Vector_base<double, std::allocator<double>>::_Vector_impl_data" = type { ptr, ptr, ptr }
%"class.std::vector" = type { %"struct.std::_Vector_base" }
%"class.QuantLib::Distribution" = type <{ i32, [4 x i8], double, double, %"class.std::vector.9", %"class.std::vector", %"class.std::vector", %"class.std::vector", %"class.std::vector", %"class.std::vector", %"class.std::vector", %"class.std::vector", i32, i32, i8, [7 x i8] }>
%"class.std::vector.9" = type { %"struct.std::_Vector_base.10" }
%"struct.std::_Vector_base.10" = type { %"struct.std::_Vector_base<int, std::allocator<int>>::_Vector_impl" }
%"struct.std::_Vector_base<int, std::allocator<int>>::_Vector_impl" = type { %"struct.std::_Vector_base<int, std::allocator<int>>::_Vector_impl_data" }
%"struct.std::_Vector_base<int, std::allocator<int>>::_Vector_impl_data" = type { ptr, ptr, ptr }
%"class.QuantLib::LossDist" = type { ptr }
%"class.QuantLib::MersenneTwisterUniformRng" = type { [624 x i64], i64 }
%"struct.QuantLib::Sample" = type { double, double }
%"class.QuantLib::LossDistMonteCarlo" = type { %"class.QuantLib::LossDist", i64, double, i64, i64, double }

; Function Attrs: mustprogress uwtable
define linkonce_odr noundef i64 @_ZNK8QuantLib25MersenneTwisterUniformRng9nextInt32Ev(ptr noundef nonnull align 8 dereferenceable(5000) %this) #2 comdat align 2 {
entry:
  %this.addr = alloca ptr, align 8
  %y = alloca i64, align 8
  store ptr %this, ptr %this.addr, align 8, !tbaa !7
  %this1 = load ptr, ptr %this.addr, align 8
  %mti = getelementptr inbounds nuw %"class.QuantLib::MersenneTwisterUniformRng", ptr %this1, i32 0, i32 1
  %0 = load i64, ptr %mti, align 8, !tbaa !82
  %cmp = icmp eq i64 %0, 624
  br i1 %cmp, label %if.then, label %if.end

if.then:                                          ; preds = %entry
  call void @_ZNK8QuantLib25MersenneTwisterUniformRng5twistEv(ptr noundef nonnull align 8 dereferenceable(5000) %this1)
  br label %if.end

if.end:                                           ; preds = %if.then, %entry
  call void @llvm.lifetime.start.p0(i64 8, ptr %y) #15
  %mt = getelementptr inbounds nuw %"class.QuantLib::MersenneTwisterUniformRng", ptr %this1, i32 0, i32 0
  %mti2 = getelementptr inbounds nuw %"class.QuantLib::MersenneTwisterUniformRng", ptr %this1, i32 0, i32 1
  %1 = load i64, ptr %mti2, align 8, !tbaa !82
  %inc = add i64 %1, 1
  store i64 %inc, ptr %mti2, align 8, !tbaa !82
  %arrayidx = getelementptr inbounds nuw [624 x i64], ptr %mt, i64 0, i64 %1
  %2 = load i64, ptr %arrayidx, align 8, !tbaa !11
  store i64 %2, ptr %y, align 8, !tbaa !11
  %3 = load i64, ptr %y, align 8, !tbaa !11
  %shr = lshr i64 %3, 11
  %4 = load i64, ptr %y, align 8, !tbaa !11
  %xor = xor i64 %4, %shr
  store i64 %xor, ptr %y, align 8, !tbaa !11
  %5 = load i64, ptr %y, align 8, !tbaa !11
  %shl = shl i64 %5, 7
  %and = and i64 %shl, 2636928640
  %6 = load i64, ptr %y, align 8, !tbaa !11
  %xor3 = xor i64 %6, %and
  store i64 %xor3, ptr %y, align 8, !tbaa !11
  %7 = load i64, ptr %y, align 8, !tbaa !11
  %shl4 = shl i64 %7, 15
  %and5 = and i64 %shl4, 4022730752
  %8 = load i64, ptr %y, align 8, !tbaa !11
  %xor6 = xor i64 %8, %and5
  store i64 %xor6, ptr %y, align 8, !tbaa !11
  %9 = load i64, ptr %y, align 8, !tbaa !11
  %shr7 = lshr i64 %9, 18
  %10 = load i64, ptr %y, align 8, !tbaa !11
  %xor8 = xor i64 %10, %shr7
  store i64 %xor8, ptr %y, align 8, !tbaa !11
  %11 = load i64, ptr %y, align 8, !tbaa !11
  call void @llvm.lifetime.end.p0(i64 8, ptr %y) #15
  ret i64 %11
}

; Function Attrs: mustprogress nounwind uwtable
define linkonce_odr void @_ZN8QuantLib6SampleIdEC2Edd(ptr noundef nonnull align 8 dereferenceable(16) %this, double noundef %value, double noundef %weight) unnamed_addr #3 comdat align 2 {
entry:
  %this.addr = alloca ptr, align 8
  %value.addr = alloca double, align 8
  %weight.addr = alloca double, align 8
  store ptr %this, ptr %this.addr, align 8, !tbaa !7
  store double %value, ptr %value.addr, align 8, !tbaa !9
  store double %weight, ptr %weight.addr, align 8, !tbaa !9
  %this1 = load ptr, ptr %this.addr, align 8
  %value2 = getelementptr inbounds nuw %"struct.QuantLib::Sample", ptr %this1, i32 0, i32 0
  %0 = load double, ptr %value.addr, align 8, !tbaa !9
  store double %0, ptr %value2, align 8, !tbaa !70
  %weight3 = getelementptr inbounds nuw %"struct.QuantLib::Sample", ptr %this1, i32 0, i32 1
  %1 = load double, ptr %weight.addr, align 8, !tbaa !9
  store double %1, ptr %weight3, align 8, !tbaa !81
  ret void
}

; Function Attrs: mustprogress uwtable
define linkonce_odr noundef double @_ZNK8QuantLib25MersenneTwisterUniformRng8nextRealEv(ptr noundef nonnull align 8 dereferenceable(5000) %this) #2 comdat align 2 {
entry:
  %this.addr = alloca ptr, align 8
  store ptr %this, ptr %this.addr, align 8, !tbaa !7
  %this1 = load ptr, ptr %this.addr, align 8
  %call = call noundef i64 @_ZNK8QuantLib25MersenneTwisterUniformRng9nextInt32Ev(ptr noundef nonnull align 8 dereferenceable(5000) %this1)
  %conv = uitofp i64 %call to double
  %add = fadd double %conv, 5.000000e-01
  %div = fdiv double %add, 0x41F0000000000000
  ret double %div
}

; Function Attrs: mustprogress nounwind uwtable
define linkonce_odr noundef nonnull align 8 dereferenceable(8) ptr @_ZNKSt6vectorIdSaIdEEixEm(ptr noundef nonnull align 8 dereferenceable(24) %this, i64 noundef %__n) #3 comdat align 2 {
entry:
  %this.addr = alloca ptr, align 8
  %__n.addr = alloca i64, align 8
  store ptr %this, ptr %this.addr, align 8, !tbaa !7
  store i64 %__n, ptr %__n.addr, align 8, !tbaa !11
  %this1 = load ptr, ptr %this.addr, align 8
  %_M_impl = getelementptr inbounds nuw %"struct.std::_Vector_base", ptr %this1, i32 0, i32 0
  %_M_start = getelementptr inbounds nuw %"struct.std::_Vector_base<double, std::allocator<double>>::_Vector_impl_data", ptr %_M_impl, i32 0, i32 0
  %0 = load ptr, ptr %_M_start, align 8, !tbaa !13
  %1 = load i64, ptr %__n.addr, align 8, !tbaa !11
  %add.ptr = getelementptr inbounds nuw double, ptr %0, i64 %1
  ret ptr %add.ptr
}

; Function Attrs: mustprogress uwtable
define linkonce_odr { double, double } @_ZNK8QuantLib25MersenneTwisterUniformRng4nextEv(ptr noundef nonnull align 8 dereferenceable(5000) %this) #2 comdat align 2 {
entry:
  %retval = alloca %"struct.QuantLib::Sample", align 8
  %this.addr = alloca ptr, align 8
  store ptr %this, ptr %this.addr, align 8, !tbaa !7
  %this1 = load ptr, ptr %this.addr, align 8
  %call = call noundef double @_ZNK8QuantLib25MersenneTwisterUniformRng8nextRealEv(ptr noundef nonnull align 8 dereferenceable(5000) %this1)
  call void @_ZN8QuantLib6SampleIdEC2Edd(ptr noundef nonnull align 8 dereferenceable(16) %retval, double noundef %call, double noundef 1.000000e+00)
  %0 = load { double, double }, ptr %retval, align 8
  ret { double, double } %0
}

; Function Attrs: mustprogress nounwind uwtable
define linkonce_odr noundef i64 @_ZNKSt6vectorIdSaIdEE4sizeEv(ptr noundef nonnull align 8 dereferenceable(24) %this) #3 comdat align 2 {
entry:
  %this.addr = alloca ptr, align 8
  store ptr %this, ptr %this.addr, align 8, !tbaa !7
  %this1 = load ptr, ptr %this.addr, align 8
  %_M_impl = getelementptr inbounds nuw %"struct.std::_Vector_base", ptr %this1, i32 0, i32 0
  %_M_finish = getelementptr inbounds nuw %"struct.std::_Vector_base<double, std::allocator<double>>::_Vector_impl_data", ptr %_M_impl, i32 0, i32 1
  %0 = load ptr, ptr %_M_finish, align 8, !tbaa !15
  %_M_impl2 = getelementptr inbounds nuw %"struct.std::_Vector_base", ptr %this1, i32 0, i32 0
  %_M_start = getelementptr inbounds nuw %"struct.std::_Vector_base<double, std::allocator<double>>::_Vector_impl_data", ptr %_M_impl2, i32 0, i32 0
  %1 = load ptr, ptr %_M_start, align 8, !tbaa !13
  %sub.ptr.lhs.cast = ptrtoint ptr %0 to i64
  %sub.ptr.rhs.cast = ptrtoint ptr %1 to i64
  %sub.ptr.sub = sub i64 %sub.ptr.lhs.cast, %sub.ptr.rhs.cast
  %sub.ptr.div = sdiv exact i64 %sub.ptr.sub, 8
  ret i64 %sub.ptr.div
}

; Function Attrs: mustprogress uwtable
define void @_ZNK8QuantLib18LossDistMonteCarloclERKSt6vectorIdSaIdEES5_(ptr dead_on_unwind noalias writable sret(%"class.QuantLib::Distribution") align 8 %agg.result, ptr noundef nonnull align 8 dereferenceable(48) %this, ptr noundef nonnull align 8 dereferenceable(24) %nominals, ptr noundef nonnull align 8 dereferenceable(24) %probabilities) unnamed_addr #2 align 2 personality ptr @__gxx_personality_v0 {
entry:
  %result.ptr = alloca ptr, align 8
  %this.addr = alloca ptr, align 8
  %nominals.addr = alloca ptr, align 8
  %probabilities.addr = alloca ptr, align 8
  %nrvo = alloca i1, align 1
  %rng = alloca %"class.QuantLib::MersenneTwisterUniformRng", align 8
  %exn.slot = alloca ptr, align 8
  %ehselector.slot = alloca i32, align 4
  %i = alloca i64, align 8
  %cleanup.dest.slot = alloca i32, align 4
  %e = alloca double, align 8
  %j = alloca i64, align 8
  %r = alloca double, align 8
  %ref.tmp = alloca %"struct.QuantLib::Sample", align 8
  store ptr %agg.result, ptr %result.ptr, align 8
  store ptr %this, ptr %this.addr, align 8, !tbaa !7
  store ptr %nominals, ptr %nominals.addr, align 8, !tbaa !7
  store ptr %probabilities, ptr %probabilities.addr, align 8, !tbaa !7
  %this1 = load ptr, ptr %this.addr, align 8
  store i1 false, ptr %nrvo, align 1
  %nBuckets_ = getelementptr inbounds nuw %"class.QuantLib::LossDistMonteCarlo", ptr %this1, i32 0, i32 1
  %0 = load i64, ptr %nBuckets_, align 8, !tbaa !65
  %conv = trunc i64 %0 to i32
  %maximum_ = getelementptr inbounds nuw %"class.QuantLib::LossDistMonteCarlo", ptr %this1, i32 0, i32 2
  %1 = load double, ptr %maximum_, align 8, !tbaa !67
  call void @_ZN8QuantLib12DistributionC1Eidd(ptr noundef nonnull align 8 dereferenceable(225) %agg.result, i32 noundef %conv, double noundef 0.000000e+00, double noundef %1)
  call void @llvm.lifetime.start.p0(i64 5000, ptr %rng) #15
  %seed_ = getelementptr inbounds nuw %"class.QuantLib::LossDistMonteCarlo", ptr %this1, i32 0, i32 4
  %2 = load i64, ptr %seed_, align 8, !tbaa !68
  invoke void @_ZN8QuantLib25MersenneTwisterUniformRngC1Em(ptr noundef nonnull align 8 dereferenceable(5000) %rng, i64 noundef %2)
          to label %invoke.cont unwind label %lpad

invoke.cont:                                      ; preds = %entry
  call void @llvm.lifetime.start.p0(i64 8, ptr %i) #15
  store i64 0, ptr %i, align 8, !tbaa !11
  br label %for.cond

for.cond:                                         ; preds = %for.inc15, %invoke.cont
  %3 = load i64, ptr %i, align 8, !tbaa !11
  %simulations_ = getelementptr inbounds nuw %"class.QuantLib::LossDistMonteCarlo", ptr %this1, i32 0, i32 3
  %4 = load i64, ptr %simulations_, align 8, !tbaa !69
  %cmp = icmp ult i64 %3, %4
  br i1 %cmp, label %for.body, label %for.cond.cleanup

for.cond.cleanup:                                 ; preds = %for.cond
  store i32 2, ptr %cleanup.dest.slot, align 4
  call void @llvm.lifetime.end.p0(i64 8, ptr %i) #15
  br label %for.end18

lpad:                                             ; preds = %for.end18, %entry
  %5 = landingpad { ptr, i32 }
          cleanup
  %6 = extractvalue { ptr, i32 } %5, 0
  store ptr %6, ptr %exn.slot, align 8
  %7 = extractvalue { ptr, i32 } %5, 1
  store i32 %7, ptr %ehselector.slot, align 4
  br label %ehcleanup20

for.body:                                         ; preds = %for.cond
  call void @llvm.lifetime.start.p0(i64 8, ptr %e) #15
  store double 0.000000e+00, ptr %e, align 8, !tbaa !9
  call void @llvm.lifetime.start.p0(i64 8, ptr %j) #15
  store i64 0, ptr %j, align 8, !tbaa !11
  br label %for.cond2

for.cond2:                                        ; preds = %for.inc, %for.body
  %8 = load i64, ptr %j, align 8, !tbaa !11
  %9 = load ptr, ptr %nominals.addr, align 8, !tbaa !7
  %call = call noundef i64 @_ZNKSt6vectorIdSaIdEE4sizeEv(ptr noundef nonnull align 8 dereferenceable(24) %9) #15
  %cmp3 = icmp ult i64 %8, %call
  br i1 %cmp3, label %for.body5, label %for.cond.cleanup4

for.cond.cleanup4:                                ; preds = %for.cond2
  store i32 5, ptr %cleanup.dest.slot, align 4
  call void @llvm.lifetime.end.p0(i64 8, ptr %j) #15
  br label %for.end

for.body5:                                        ; preds = %for.cond2
  call void @llvm.lifetime.start.p0(i64 8, ptr %r) #15
  call void @llvm.lifetime.start.p0(i64 16, ptr %ref.tmp) #15
  %call8 = invoke { double, double } @_ZNK8QuantLib25MersenneTwisterUniformRng4nextEv(ptr noundef nonnull align 8 dereferenceable(5000) %rng)
          to label %invoke.cont7 unwind label %lpad6

invoke.cont7:                                     ; preds = %for.body5
  %10 = getelementptr inbounds nuw { double, double }, ptr %ref.tmp, i32 0, i32 0
  %11 = extractvalue { double, double } %call8, 0
  store double %11, ptr %10, align 8
  %12 = getelementptr inbounds nuw { double, double }, ptr %ref.tmp, i32 0, i32 1
  %13 = extractvalue { double, double } %call8, 1
  store double %13, ptr %12, align 8
  %value = getelementptr inbounds nuw %"struct.QuantLib::Sample", ptr %ref.tmp, i32 0, i32 0
  %14 = load double, ptr %value, align 8, !tbaa !70
  call void @llvm.lifetime.end.p0(i64 16, ptr %ref.tmp) #15
  store double %14, ptr %r, align 8, !tbaa !9
  %15 = load double, ptr %r, align 8, !tbaa !9
  %16 = load ptr, ptr %probabilities.addr, align 8, !tbaa !7
  %17 = load i64, ptr %j, align 8, !tbaa !11
  %call9 = call noundef nonnull align 8 dereferenceable(8) ptr @_ZNKSt6vectorIdSaIdEEixEm(ptr noundef nonnull align 8 dereferenceable(24) %16, i64 noundef %17) #15
  %18 = load double, ptr %call9, align 8, !tbaa !9
  %cmp10 = fcmp ole double %15, %18
  br i1 %cmp10, label %if.then, label %if.end

if.then:                                          ; preds = %invoke.cont7
  %19 = load ptr, ptr %nominals.addr, align 8, !tbaa !7
  %20 = load i64, ptr %j, align 8, !tbaa !11
  %call11 = call noundef nonnull align 8 dereferenceable(8) ptr @_ZNKSt6vectorIdSaIdEEixEm(ptr noundef nonnull align 8 dereferenceable(24) %19, i64 noundef %20) #15
  %21 = load double, ptr %call11, align 8, !tbaa !9
  %22 = load double, ptr %e, align 8, !tbaa !9
  %add = fadd double %22, %21
  store double %add, ptr %e, align 8, !tbaa !9
  br label %if.end

lpad6:                                            ; preds = %for.body5
  %23 = landingpad { ptr, i32 }
          cleanup
  %24 = extractvalue { ptr, i32 } %23, 0
  store ptr %24, ptr %exn.slot, align 8
  %25 = extractvalue { ptr, i32 } %23, 1
  store i32 %25, ptr %ehselector.slot, align 4
  call void @llvm.lifetime.end.p0(i64 16, ptr %ref.tmp) #15
  call void @llvm.lifetime.end.p0(i64 8, ptr %r) #15
  call void @llvm.lifetime.end.p0(i64 8, ptr %j) #15
  br label %ehcleanup

if.end:                                           ; preds = %if.then, %invoke.cont7
  call void @llvm.lifetime.end.p0(i64 8, ptr %r) #15
  br label %for.inc

for.inc:                                          ; preds = %if.end
  %26 = load i64, ptr %j, align 8, !tbaa !11
  %inc = add i64 %26, 1
  store i64 %inc, ptr %j, align 8, !tbaa !11
  br label %for.cond2, !llvm.loop !72

for.end:                                          ; preds = %for.cond.cleanup4
  %27 = load double, ptr %e, align 8, !tbaa !9
  %epsilon_ = getelementptr inbounds nuw %"class.QuantLib::LossDistMonteCarlo", ptr %this1, i32 0, i32 5
  %28 = load double, ptr %epsilon_, align 8, !tbaa !73
  %add12 = fadd double %27, %28
  invoke void @_ZN8QuantLib12Distribution3addEd(ptr noundef nonnull align 8 dereferenceable(225) %agg.result, double noundef %add12)
          to label %invoke.cont14 unwind label %lpad13

invoke.cont14:                                    ; preds = %for.end
  call void @llvm.lifetime.end.p0(i64 8, ptr %e) #15
  br label %for.inc15

for.inc15:                                        ; preds = %invoke.cont14
  %29 = load i64, ptr %i, align 8, !tbaa !11
  %inc16 = add i64 %29, 1
  store i64 %inc16, ptr %i, align 8, !tbaa !11
  br label %for.cond, !llvm.loop !74

lpad13:                                           ; preds = %for.end
  %30 = landingpad { ptr, i32 }
          cleanup
  %31 = extractvalue { ptr, i32 } %30, 0
  store ptr %31, ptr %exn.slot, align 8
  %32 = extractvalue { ptr, i32 } %30, 1
  store i32 %32, ptr %ehselector.slot, align 4
  br label %ehcleanup

ehcleanup:                                        ; preds = %lpad13, %lpad6
  call void @llvm.lifetime.end.p0(i64 8, ptr %e) #15
  call void @llvm.lifetime.end.p0(i64 8, ptr %i) #15
  br label %ehcleanup20

for.end18:                                        ; preds = %for.cond.cleanup
  invoke void @_ZN8QuantLib12Distribution9normalizeEv(ptr noundef nonnull align 8 dereferenceable(225) %agg.result)
          to label %invoke.cont19 unwind label %lpad

invoke.cont19:                                    ; preds = %for.end18
  store i1 true, ptr %nrvo, align 1
  store i32 1, ptr %cleanup.dest.slot, align 4
  call void @llvm.lifetime.end.p0(i64 5000, ptr %rng) #15
  %nrvo.val = load i1, ptr %nrvo, align 1
  br i1 %nrvo.val, label %nrvo.skipdtor, label %nrvo.unused

ehcleanup20:                                      ; preds = %ehcleanup, %lpad
  call void @llvm.lifetime.end.p0(i64 5000, ptr %rng) #15
  call void @_ZN8QuantLib12DistributionD2Ev(ptr noundef nonnull align 8 dereferenceable(225) %agg.result) #15
  br label %eh.resume

nrvo.unused:                                      ; preds = %invoke.cont19
  call void @_ZN8QuantLib12DistributionD2Ev(ptr noundef nonnull align 8 dereferenceable(225) %agg.result) #15
  br label %nrvo.skipdtor

nrvo.skipdtor:                                    ; preds = %nrvo.unused, %invoke.cont19
  ret void

eh.resume:                                        ; preds = %ehcleanup20
  %exn = load ptr, ptr %exn.slot, align 8
  %sel = load i32, ptr %ehselector.slot, align 4
  %lpad.val = insertvalue { ptr, i32 } poison, ptr %exn, 0
  %lpad.val22 = insertvalue { ptr, i32 } %lpad.val, i32 %sel, 1
  resume { ptr, i32 } %lpad.val22
}