; Function Attrs: mustprogress uwtable
define void @_ZNK8QuantLib18LossDistMonteCarloclERKSt6vectorIdSaIdEES5_(ptr dead_on_unwind noalias nonnull writable sret(%"class.QuantLib::Distribution") align 8 %agg.result, ptr nocapture noundef nonnull readonly align 8 dereferenceable(48) %this, ptr nocapture noundef nonnull readonly align 8 dereferenceable(24) %nominals, ptr nocapture noundef nonnull readonly align 8 dereferenceable(24) %probabilities) unnamed_addr #3 align 2 personality ptr @__gxx_personality_v0 {
entry:
  %rng = alloca %"class.QuantLib::MersenneTwisterUniformRng", align 8
  %nBuckets_ = getelementptr inbounds nuw i8, ptr %this, i64 8
  %0 = load i64, ptr %nBuckets_, align 8, !tbaa !77
  %conv = trunc i64 %0 to i32
  %maximum_ = getelementptr inbounds nuw i8, ptr %this, i64 16
  %1 = load double, ptr %maximum_, align 8, !tbaa !79
  tail call void @_ZN8QuantLib12DistributionC1Eidd(ptr noundef nonnull align 8 dereferenceable(225) %agg.result, i32 noundef %conv, double noundef 0.000000e+00, double noundef %1)
  call void @llvm.lifetime.start.p0(i64 5000, ptr nonnull %rng) #20
  %seed_ = getelementptr inbounds nuw i8, ptr %this, i64 32
  %2 = load i64, ptr %seed_, align 8, !tbaa !80
  invoke void @_ZN8QuantLib25MersenneTwisterUniformRngC1Em(ptr noundef nonnull align 8 dereferenceable(5000) %rng, i64 noundef %2)
          to label %for.cond.preheader unwind label %lpad

for.cond.preheader:                               ; preds = %entry
  %simulations_ = getelementptr inbounds nuw i8, ptr %this, i64 24
  %3 = load i64, ptr %simulations_, align 8, !tbaa !81
  %cmp18.not = icmp eq i64 %3, 0
  br i1 %cmp18.not, label %for.cond.cleanup, label %for.cond2.preheader.lr.ph

for.cond2.preheader.lr.ph:                        ; preds = %for.cond.preheader
  %_M_finish.i = getelementptr inbounds nuw i8, ptr %nominals, i64 8
  %mti.i.i.i = getelementptr inbounds nuw i8, ptr %rng, i64 4992
  %epsilon_ = getelementptr inbounds nuw i8, ptr %this, i64 40
  br label %for.cond2.preheader

for.cond2.preheader:                              ; preds = %for.cond2.preheader.lr.ph, %invoke.cont14
  %i.019 = phi i64 [ 0, %for.cond2.preheader.lr.ph ], [ %inc16, %invoke.cont14 ]
  %4 = load ptr, ptr %_M_finish.i, align 8, !tbaa !10
  %5 = load ptr, ptr %nominals, align 8, !tbaa !3
  %cmp315.not = icmp eq ptr %4, %5
  br i1 %cmp315.not, label %for.cond.cleanup4, label %for.body5.preheader

for.body5.preheader:                              ; preds = %for.cond2.preheader
  %.pre = load i64, ptr %mti.i.i.i, align 8, !tbaa !82
  br label %for.body5

for.cond.cleanup:                                 ; preds = %invoke.cont14, %for.cond.preheader
  invoke void @_ZN8QuantLib12Distribution9normalizeEv(ptr noundef nonnull align 8 dereferenceable(225) %agg.result)
          to label %invoke.cont19 unwind label %lpad

lpad:                                             ; preds = %for.cond.cleanup, %entry
  %6 = landingpad { ptr, i32 }
          cleanup
  br label %ehcleanup20

for.cond.cleanup4:                                ; preds = %if.end, %for.cond2.preheader
  %e.0.lcssa = phi double [ 0.000000e+00, %for.cond2.preheader ], [ %e.1, %if.end ]
  %7 = load double, ptr %epsilon_, align 8, !tbaa !84
  %add12 = fadd double %e.0.lcssa, %7
  invoke void @_ZN8QuantLib12Distribution3addEd(ptr noundef nonnull align 8 dereferenceable(225) %agg.result, double noundef %add12)
          to label %invoke.cont14 unwind label %lpad13

for.body5:                                        ; preds = %for.body5.preheader, %if.end
  %.pre2021 = phi ptr [ %.pre20, %if.end ], [ %5, %for.body5.preheader ]
  %8 = phi i64 [ %inc.i.i.i, %if.end ], [ %.pre, %for.body5.preheader ]
  %j.017 = phi i64 [ %inc, %if.end ], [ 0, %for.body5.preheader ]
  %e.016 = phi double [ %e.1, %if.end ], [ 0.000000e+00, %for.body5.preheader ]
  %cmp.i.i.i = icmp eq i64 %8, 624
  br i1 %cmp.i.i.i, label %if.then.i.i.i, label %invoke.cont7

if.then.i.i.i:                                    ; preds = %for.body5
  invoke void @_ZNK8QuantLib25MersenneTwisterUniformRng5twistEv(ptr noundef nonnull align 8 dereferenceable(5000) %rng)
          to label %.noexc unwind label %lpad6

.noexc:                                           ; preds = %if.then.i.i.i
  %.pre.i.i.i = load i64, ptr %mti.i.i.i, align 8, !tbaa !82
  %.pre20.pre = load ptr, ptr %nominals, align 8, !tbaa !3
  br label %invoke.cont7

invoke.cont7:                                     ; preds = %.noexc, %for.body5
  %.pre20 = phi ptr [ %.pre20.pre, %.noexc ], [ %.pre2021, %for.body5 ]
  %9 = phi i64 [ %.pre.i.i.i, %.noexc ], [ %8, %for.body5 ]
  %inc.i.i.i = add i64 %9, 1
  store i64 %inc.i.i.i, ptr %mti.i.i.i, align 8, !tbaa !82
  %arrayidx.i.i.i = getelementptr inbounds nuw [624 x i64], ptr %rng, i64 0, i64 %9
  %10 = load i64, ptr %arrayidx.i.i.i, align 8, !tbaa !71
  %shr.i.i.i = lshr i64 %10, 11
  %xor.i.i.i = xor i64 %shr.i.i.i, %10
  %shl.i.i.i = shl i64 %xor.i.i.i, 7
  %and.i.i.i = and i64 %shl.i.i.i, 2636928640
  %xor3.i.i.i = xor i64 %and.i.i.i, %xor.i.i.i
  %shl4.i.i.i = shl i64 %xor3.i.i.i, 15
  %and5.i.i.i = and i64 %shl4.i.i.i, 4022730752
  %xor6.i.i.i = xor i64 %and5.i.i.i, %xor3.i.i.i
  %shr7.i.i.i = lshr i64 %xor6.i.i.i, 18
  %xor8.i.i.i = xor i64 %shr7.i.i.i, %xor6.i.i.i
  %conv.i.i = uitofp i64 %xor8.i.i.i to double
  %add.i.i = fadd double %conv.i.i, 5.000000e-01
  %div.i.i = fmul double %add.i.i, 0x3DF0000000000000
  %11 = load ptr, ptr %probabilities, align 8, !tbaa !3
  %add.ptr.i = getelementptr inbounds nuw double, ptr %11, i64 %j.017
  %12 = load double, ptr %add.ptr.i, align 8, !tbaa !8
  %cmp10 = fcmp ugt double %div.i.i, %12
  br i1 %cmp10, label %if.end, label %if.then

if.then:                                          ; preds = %invoke.cont7
  %add.ptr.i9 = getelementptr inbounds nuw double, ptr %.pre20, i64 %j.017
  %13 = load double, ptr %add.ptr.i9, align 8, !tbaa !8
  %add = fadd double %e.016, %13
  br label %if.end

lpad6:                                            ; preds = %if.then.i.i.i
  %14 = landingpad { ptr, i32 }
          cleanup
  br label %ehcleanup20

if.end:                                           ; preds = %if.then, %invoke.cont7
  %e.1 = phi double [ %add, %if.then ], [ %e.016, %invoke.cont7 ]
  %inc = add nuw i64 %j.017, 1
  %15 = load ptr, ptr %_M_finish.i, align 8, !tbaa !10
  %sub.ptr.lhs.cast.i = ptrtoint ptr %15 to i64
  %sub.ptr.rhs.cast.i = ptrtoint ptr %.pre20 to i64
  %sub.ptr.sub.i = sub i64 %sub.ptr.lhs.cast.i, %sub.ptr.rhs.cast.i
  %sub.ptr.div.i = ashr exact i64 %sub.ptr.sub.i, 3
  %cmp3 = icmp ult i64 %inc, %sub.ptr.div.i
  br i1 %cmp3, label %for.body5, label %for.cond.cleanup4, !llvm.loop !85

invoke.cont14:                                    ; preds = %for.cond.cleanup4
  %inc16 = add nuw i64 %i.019, 1
  %16 = load i64, ptr %simulations_, align 8, !tbaa !81
  %cmp = icmp ult i64 %inc16, %16
  br i1 %cmp, label %for.cond2.preheader, label %for.cond.cleanup, !llvm.loop !86

lpad13:                                           ; preds = %for.cond.cleanup4
  %17 = landingpad { ptr, i32 }
          cleanup
  br label %ehcleanup20

invoke.cont19:                                    ; preds = %for.cond.cleanup
  call void @llvm.lifetime.end.p0(i64 5000, ptr nonnull %rng) #20
  ret void

ehcleanup20:                                      ; preds = %lpad6, %lpad13, %lpad
  %.pn.pn = phi { ptr, i32 } [ %6, %lpad ], [ %14, %lpad6 ], [ %17, %lpad13 ]
  call void @llvm.lifetime.end.p0(i64 5000, ptr nonnull %rng) #20
  call void @_ZN8QuantLib12DistributionD2Ev(ptr noundef nonnull align 8 dereferenceable(225) %agg.result) #20
  resume { ptr, i32 } %.pn.pn
}